target datalayout = "e-m:e-p270:32:32-p271:32:32-p272:64:64-i64:64-i128:128-f80:128-n8:16:32:64-S128"
target triple = "x86_64-pc-linux-gnu"

%struct.SN_env = type { ptr, i32, i32, i32, i32, i32, ptr, ptr }

; Function Attrs: nounwind uwtable
define internal i32 @r_mark_DUr(ptr noundef %0) #0 {
  %2 = alloca i32, align 4
  %3 = alloca ptr, align 8
  %4 = alloca i32, align 4
  %5 = alloca i32, align 4
  store ptr %0, ptr %3, align 8
  call void @llvm.lifetime.start.p0(i64 4, ptr %4) #3
  %6 = load ptr, ptr %3, align 8
  %7 = call i32 @r_check_vowel_harmony(ptr noundef %6)
  store i32 %7, ptr %4, align 4
  %8 = load i32, ptr %4, align 4
  %9 = icmp sle i32 %8, 0
  br i1 %9, label %10, label %12

10:                                               ; preds = %1
  %11 = load i32, ptr %4, align 4
  store i32 %11, ptr %2, align 4
  store i32 1, ptr %5, align 4
  br label %13

12:                                               ; preds = %1
  store i32 0, ptr %5, align 4
  br label %13

13:                                               ; preds = %12, %10
  call void @llvm.lifetime.end.p0(i64 4, ptr %4) #3
  %14 = load i32, ptr %5, align 4
  switch i32 %14, label %46 [
    i32 0, label %15
    i32 1, label %44
  ]

15:                                               ; preds = %13
  %16 = load ptr, ptr %3, align 8
  %17 = getelementptr inbounds nuw %struct.SN_env, ptr %16, i32 0, i32 1
  %18 = load i32, ptr %17, align 8
  %19 = sub i32 %18, 2
  %20 = load ptr, ptr %3, align 8
  %21 = getelementptr inbounds nuw %struct.SN_env, ptr %20, i32 0, i32 3
  %22 = load i32, ptr %21, align 8
  %23 = icmp sle i32 %19, %22
  br i1 %23, label %37, label %24

24:                                               ; preds = %15
  %25 = load ptr, ptr %3, align 8
  %26 = getelementptr inbounds nuw %struct.SN_env, ptr %25, i32 0, i32 0
  %27 = load ptr, ptr %26, align 8
  %28 = load ptr, ptr %3, align 8
  %29 = getelementptr inbounds nuw %struct.SN_env, ptr %28, i32 0, i32 1
  %30 = load i32, ptr %29, align 8
  %31 = sub i32 %30, 1
  %32 = sext i32 %31 to i64
  %33 = getelementptr inbounds i8, ptr %27, i64 %32
  %34 = load i8, ptr %33, align 1
  %35 = zext i8 %34 to i32
  %36 = icmp ne i32 %35, 114
  br i1 %36, label %37, label %38

37:                                               ; preds = %24, %15
  store i32 0, ptr %2, align 4
  br label %44

38:                                               ; preds = %24
  %39 = load ptr, ptr %3, align 8
  %40 = call i32 @find_among_b(ptr noundef %39, ptr noundef @a_18, i32 noundef 8)
  %41 = icmp ne i32 %40, 0
  br i1 %41, label %43, label %42

42:                                               ; preds = %38
  store i32 0, ptr %2, align 4
  br label %44

43:                                               ; preds = %38
  store i32 1, ptr %2, align 4
  br label %44

44:                                               ; preds = %43, %42, %37, %13
  %45 = load i32, ptr %2, align 4
  ret i32 %45

46:                                               ; preds = %13
  unreachable
}